; ModuleID = '37/1418.cpp'
source_filename = "37/1418.cpp"
target datalayout = "e-m:e-p270:32:32-p271:32:32-p272:64:64-i64:64-f80:128-n8:16:32:64-S128"
target triple = "x86_64-pc-linux-gnu"

%"class.std::ios_base::Init" = type { i8 }
%"class.std::basic_istream" = type { i32 (...)**, i64, %"class.std::basic_ios" }
%"class.std::basic_ios" = type { %"class.std::ios_base", %"class.std::basic_ostream"*, i8, i8, %"class.std::basic_streambuf"*, %"class.std::ctype"*, %"class.std::num_put"*, %"class.std::num_get"* }
%"class.std::ios_base" = type { i32 (...)**, i64, i64, i32, i32, i32, %"struct.std::ios_base::_Callback_list"*, %"struct.std::ios_base::_Words", [8 x %"struct.std::ios_base::_Words"], i32, %"struct.std::ios_base::_Words"*, %"class.std::locale" }
%"struct.std::ios_base::_Callback_list" = type { %"struct.std::ios_base::_Callback_list"*, void (i32, %"class.std::ios_base"*, i32)*, i32, i32 }
%"struct.std::ios_base::_Words" = type { i8*, i64 }
%"class.std::locale" = type { %"class.std::locale::_Impl"* }
%"class.std::locale::_Impl" = type { i32, %"class.std::locale::facet"**, i64, %"class.std::locale::facet"**, i8** }
%"class.std::locale::facet" = type <{ i32 (...)**, i32, [4 x i8] }>
%"class.std::basic_ostream" = type { i32 (...)**, %"class.std::basic_ios" }
%"class.std::basic_streambuf" = type { i32 (...)**, i8*, i8*, i8*, i8*, i8*, i8*, %"class.std::locale" }
%"class.std::ctype" = type <{ %"class.std::locale::facet.base", [4 x i8], %struct.__locale_struct*, i8, [7 x i8], i32*, i32*, i16*, i8, [256 x i8], [256 x i8], i8, [6 x i8] }>
%"class.std::locale::facet.base" = type <{ i32 (...)**, i32 }>
%struct.__locale_struct = type { [13 x %struct.__locale_data*], i16*, i32*, i32*, [13 x i8*] }
%struct.__locale_data = type opaque
%"class.std::num_put" = type { %"class.std::locale::facet.base", [4 x i8] }
%"class.std::num_get" = type { %"class.std::locale::facet.base", [4 x i8] }

@_ZStL8__ioinit = internal global %"class.std::ios_base::Init" zeroinitializer, align 1
@__dso_handle = external hidden global i8
@_ZSt3cin = external dso_local global %"class.std::basic_istream", align 8
@_ZSt4cout = external dso_local global %"class.std::basic_ostream", align 8
@.str = private unnamed_addr constant [3 x i8] c"no\00", align 1
@llvm.global_ctors = appending global [1 x { i32, void ()*, i8* }] [{ i32, void ()*, i8* } { i32 65535, void ()* @_GLOBAL__sub_I_1418.cpp, i8* null }]

; Function Attrs: noinline uwtable
define internal void @__cxx_global_var_init() #0 section ".text.startup" {
  call void @_ZNSt8ios_base4InitC1Ev(%"class.std::ios_base::Init"* @_ZStL8__ioinit)
  %1 = call i32 @__cxa_atexit(void (i8*)* bitcast (void (%"class.std::ios_base::Init"*)* @_ZNSt8ios_base4InitD1Ev to void (i8*)*), i8* getelementptr inbounds (%"class.std::ios_base::Init", %"class.std::ios_base::Init"* @_ZStL8__ioinit, i32 0, i32 0), i8* @__dso_handle) #3
  ret void
}

declare dso_local void @_ZNSt8ios_base4InitC1Ev(%"class.std::ios_base::Init"*) unnamed_addr #1

; Function Attrs: nounwind
declare dso_local void @_ZNSt8ios_base4InitD1Ev(%"class.std::ios_base::Init"*) unnamed_addr #2

; Function Attrs: nounwind
declare dso_local i32 @__cxa_atexit(void (i8*)*, i8*, i8*) #3

; Function Attrs: noinline norecurse uwtable
define dso_local i32 @main() #4 {
  %1 = alloca i32, align 4
  %2 = alloca i32, align 4
  %3 = alloca i32, align 4
  %4 = alloca i32, align 4
  %5 = alloca i32, align 4
  %6 = alloca i32, align 4
  %7 = alloca [26 x i32], align 16
  %8 = alloca [100000 x i8], align 16
  store i32 0, i32* %1, align 4
  %9 = call dereferenceable(280) %"class.std::basic_istream"* @_ZNSirsERi(%"class.std::basic_istream"* @_ZSt3cin, i32* dereferenceable(4) %2)
  %10 = call dereferenceable(280) %"class.std::basic_istream"* @_ZNSi6ignoreEv(%"class.std::basic_istream"* @_ZSt3cin)
  store i32 1, i32* %3, align 4
  br label %11

11:                                               ; preds = %87, %0
  %12 = load i32, i32* %3, align 4
  %13 = load i32, i32* %2, align 4
  %14 = icmp sle i32 %12, %13
  br i1 %14, label %15, label %90

15:                                               ; preds = %11
  store i32 0, i32* %5, align 4
  br label %16

16:                                               ; preds = %23, %15
  %17 = load i32, i32* %5, align 4
  %18 = icmp slt i32 %17, 26
  br i1 %18, label %19, label %26

19:                                               ; preds = %16
  %20 = load i32, i32* %5, align 4
  %21 = sext i32 %20 to i64
  %22 = getelementptr inbounds [26 x i32], [26 x i32]* %7, i64 0, i64 %21
  store i32 0, i32* %22, align 4
  br label %23

23:                                               ; preds = %19
  %24 = load i32, i32* %5, align 4
  %25 = add nsw i32 %24, 1
  store i32 %25, i32* %5, align 4
  br label %16

26:                                               ; preds = %16
  store i32 0, i32* %6, align 4
  store i32 0, i32* %4, align 4
  br label %27

27:                                               ; preds = %50, %26
  %28 = load i32, i32* %4, align 4
  %29 = sext i32 %28 to i64
  %30 = getelementptr inbounds [100000 x i8], [100000 x i8]* %8, i64 0, i64 %29
  %31 = call dereferenceable(280) %"class.std::basic_istream"* @_ZNSi3getERc(%"class.std::basic_istream"* @_ZSt3cin, i8* dereferenceable(1) %30)
  %32 = load i32, i32* %4, align 4
  %33 = sext i32 %32 to i64
  %34 = getelementptr inbounds [100000 x i8], [100000 x i8]* %8, i64 0, i64 %33
  %35 = load i8, i8* %34, align 1
  %36 = sext i8 %35 to i32
  %37 = icmp eq i32 %36, 10
  br i1 %37, label %38, label %39

38:                                               ; preds = %27
  br label %53

39:                                               ; preds = %27
  %40 = load i32, i32* %4, align 4
  %41 = sext i32 %40 to i64
  %42 = getelementptr inbounds [100000 x i8], [100000 x i8]* %8, i64 0, i64 %41
  %43 = load i8, i8* %42, align 1
  %44 = sext i8 %43 to i32
  %45 = sub nsw i32 %44, 97
  %46 = sext i32 %45 to i64
  %47 = getelementptr inbounds [26 x i32], [26 x i32]* %7, i64 0, i64 %46
  %48 = load i32, i32* %47, align 4
  %49 = add nsw i32 %48, 1
  store i32 %49, i32* %47, align 4
  br label %50

50:                                               ; preds = %39
  %51 = load i32, i32* %4, align 4
  %52 = add nsw i32 %51, 1
  store i32 %52, i32* %4, align 4
  br label %27

53:                                               ; preds = %38
  store i32 0, i32* %5, align 4
  br label %54

54:                                               ; preds = %77, %53
  %55 = load i32, i32* %5, align 4
  %56 = load i32, i32* %4, align 4
  %57 = icmp slt i32 %55, %56
  br i1 %57, label %58, label %80

58:                                               ; preds = %54
  %59 = load i32, i32* %5, align 4
  %60 = sext i32 %59 to i64
  %61 = getelementptr inbounds [100000 x i8], [100000 x i8]* %8, i64 0, i64 %60
  %62 = load i8, i8* %61, align 1
  %63 = sext i8 %62 to i32
  %64 = sub nsw i32 %63, 97
  %65 = sext i32 %64 to i64
  %66 = getelementptr inbounds [26 x i32], [26 x i32]* %7, i64 0, i64 %65
  %67 = load i32, i32* %66, align 4
  %68 = icmp eq i32 %67, 1
  br i1 %68, label %69, label %76

69:                                               ; preds = %58
  %70 = load i32, i32* %5, align 4
  %71 = sext i32 %70 to i64
  %72 = getelementptr inbounds [100000 x i8], [100000 x i8]* %8, i64 0, i64 %71
  %73 = load i8, i8* %72, align 1
  %74 = call dereferenceable(272) %"class.std::basic_ostream"* @_ZStlsISt11char_traitsIcEERSt13basic_ostreamIcT_ES5_c(%"class.std::basic_ostream"* dereferenceable(272) @_ZSt4cout, i8 signext %73)
  %75 = call dereferenceable(272) %"class.std::basic_ostream"* @_ZNSolsEPFRSoS_E(%"class.std::basic_ostream"* %74, %"class.std::basic_ostream"* (%"class.std::basic_ostream"*)* @_ZSt4endlIcSt11char_traitsIcEERSt13basic_ostreamIT_T0_ES6_)
  store i32 1, i32* %6, align 4
  br label %80

76:                                               ; preds = %58
  br label %77

77:                                               ; preds = %76
  %78 = load i32, i32* %5, align 4
  %79 = add nsw i32 %78, 1
  store i32 %79, i32* %5, align 4
  br label %54

80:                                               ; preds = %69, %54
  %81 = load i32, i32* %6, align 4
  %82 = icmp eq i32 %81, 0
  br i1 %82, label %83, label %86

83:                                               ; preds = %80
  %84 = call dereferenceable(272) %"class.std::basic_ostream"* @_ZStlsISt11char_traitsIcEERSt13basic_ostreamIcT_ES5_PKc(%"class.std::basic_ostream"* dereferenceable(272) @_ZSt4cout, i8* getelementptr inbounds ([3 x i8], [3 x i8]* @.str, i64 0, i64 0))
  %85 = call dereferenceable(272) %"class.std::basic_ostream"* @_ZNSolsEPFRSoS_E(%"class.std::basic_ostream"* %84, %"class.std::basic_ostream"* (%"class.std::basic_ostream"*)* @_ZSt4endlIcSt11char_traitsIcEERSt13basic_ostreamIT_T0_ES6_)
  br label %86

86:                                               ; preds = %83, %80
  br label %87

87:                                               ; preds = %86
  %88 = load i32, i32* %3, align 4
  %89 = add nsw i32 %88, 1
  store i32 %89, i32* %3, align 4
  br label %11

90:                                               ; preds = %11
  ret i32 0
}

declare dso_local dereferenceable(280) %"class.std::basic_istream"* @_ZNSirsERi(%"class.std::basic_istream"*, i32* dereferenceable(4)) #1

declare dso_local dereferenceable(280) %"class.std::basic_istream"* @_ZNSi6ignoreEv(%"class.std::basic_istream"*) #1

declare dso_local dereferenceable(280) %"class.std::basic_istream"* @_ZNSi3getERc(%"class.std::basic_istream"*, i8* dereferenceable(1)) #1

declare dso_local dereferenceable(272) %"class.std::basic_ostream"* @_ZStlsISt11char_traitsIcEERSt13basic_ostreamIcT_ES5_c(%"class.std::basic_ostream"* dereferenceable(272), i8 signext) #1

declare dso_local dereferenceable(272) %"class.std::basic_ostream"* @_ZNSolsEPFRSoS_E(%"class.std::basic_ostream"*, %"class.std::basic_ostream"* (%"class.std::basic_ostream"*)*) #1

declare dso_local dereferenceable(272) %"class.std::basic_ostream"* @_ZSt4endlIcSt11char_traitsIcEERSt13basic_ostreamIT_T0_ES6_(%"class.std::basic_ostream"* dereferenceable(272)) #1

declare dso_local dereferenceable(272) %"class.std::basic_ostream"* @_ZStlsISt11char_traitsIcEERSt13basic_ostreamIcT_ES5_PKc(%"class.std::basic_ostream"* dereferenceable(272), i8*) #1

; Function Attrs: noinline uwtable
define internal void @_GLOBAL__sub_I_1418.cpp() #0 section ".text.startup" {
  call void @__cxx_global_var_init()
  ret void
}


!llvm.module.flags = !{!0}
!llvm.ident = !{!1}

!0 = !{i32 1, !"wchar_size", i32 4}
!1 = !{!"clang version 10.0.0-4ubuntu1 "}
